target datalayout = "e-m:e-p270:32:32-p271:32:32-p272:64:64-i64:64-i128:128-f80:128-n8:16:32:64-S128"
target triple = "x86_64-pc-linux-gnu"

@OALString_HexChar = internal constant [16 x i8] c"0123456789ABCDEF", align 16

; Function Attrs: nounwind null_pointer_is_valid sspstrong uwtable
define internal i32 @ObjectID_DataToString(ptr noundef %0, i32 noundef %1, ptr noundef %2) #2 {
  %4 = alloca ptr, align 8
  %5 = alloca i32, align 4
  %6 = alloca ptr, align 8
  %7 = alloca i32, align 4
  %8 = alloca i32, align 4
  %9 = alloca i32, align 4
  %10 = alloca i32, align 4
  store ptr %0, ptr %4, align 8
  store i32 %1, ptr %5, align 4
  store ptr %2, ptr %6, align 8
  call void @llvm.lifetime.start.p0(i64 4, ptr %7) #19
  store i32 0, ptr %7, align 4
  call void @llvm.lifetime.start.p0(i64 4, ptr %8) #19
  call void @llvm.lifetime.start.p0(i64 4, ptr %9) #19
  call void @llvm.lifetime.start.p0(i64 4, ptr %10) #19
  store i32 0, ptr %8, align 4
  store i32 0, ptr %9, align 4
  store i32 0, ptr %10, align 4
  br label %11

11:                                               ; preds = %103, %3
  %12 = load i32, ptr %8, align 4
  %13 = load i32, ptr %5, align 4
  %14 = icmp ult i32 %12, %13
  br i1 %14, label %15, label %106

15:                                               ; preds = %11
  %16 = load ptr, ptr %4, align 8
  %17 = load i32, ptr %8, align 4
  %18 = zext i32 %17 to i64
  %19 = getelementptr i8, ptr %16, i64 %18
  %20 = load i8, ptr %19, align 1
  %21 = zext i8 %20 to i32
  %22 = icmp uge i32 %21, 32
  br i1 %22, label %23, label %31

23:                                               ; preds = %15
  %24 = load ptr, ptr %4, align 8
  %25 = load i32, ptr %8, align 4
  %26 = zext i32 %25 to i64
  %27 = getelementptr i8, ptr %24, i64 %26
  %28 = load i8, ptr %27, align 1
  %29 = zext i8 %28 to i32
  %30 = icmp ult i32 %29, 127
  br i1 %30, label %34, label %31

31:                                               ; preds = %23, %15
  %32 = load i32, ptr %9, align 4
  %33 = add i32 %32, 1
  store i32 %33, ptr %9, align 4
  br label %102

34:                                               ; preds = %23
  %35 = load ptr, ptr %4, align 8
  %36 = load i32, ptr %8, align 4
  %37 = zext i32 %36 to i64
  %38 = getelementptr i8, ptr %35, i64 %37
  %39 = load i8, ptr %38, align 1
  %40 = zext i8 %39 to i32
  %41 = icmp eq i32 %40, 40
  br i1 %41, label %98, label %42

42:                                               ; preds = %34
  %43 = load ptr, ptr %4, align 8
  %44 = load i32, ptr %8, align 4
  %45 = zext i32 %44 to i64
  %46 = getelementptr i8, ptr %43, i64 %45
  %47 = load i8, ptr %46, align 1
  %48 = zext i8 %47 to i32
  %49 = icmp eq i32 %48, 41
  br i1 %49, label %98, label %50

50:                                               ; preds = %42
  %51 = load ptr, ptr %4, align 8
  %52 = load i32, ptr %8, align 4
  %53 = zext i32 %52 to i64
  %54 = getelementptr i8, ptr %51, i64 %53
  %55 = load i8, ptr %54, align 1
  %56 = zext i8 %55 to i32
  %57 = icmp eq i32 %56, 91
  br i1 %57, label %98, label %58

58:                                               ; preds = %50
  %59 = load ptr, ptr %4, align 8
  %60 = load i32, ptr %8, align 4
  %61 = zext i32 %60 to i64
  %62 = getelementptr i8, ptr %59, i64 %61
  %63 = load i8, ptr %62, align 1
  %64 = zext i8 %63 to i32
  %65 = icmp eq i32 %64, 93
  br i1 %65, label %98, label %66

66:                                               ; preds = %58
  %67 = load ptr, ptr %4, align 8
  %68 = load i32, ptr %8, align 4
  %69 = zext i32 %68 to i64
  %70 = getelementptr i8, ptr %67, i64 %69
  %71 = load i8, ptr %70, align 1
  %72 = zext i8 %71 to i32
  %73 = icmp eq i32 %72, 123
  br i1 %73, label %98, label %74

74:                                               ; preds = %66
  %75 = load ptr, ptr %4, align 8
  %76 = load i32, ptr %8, align 4
  %77 = zext i32 %76 to i64
  %78 = getelementptr i8, ptr %75, i64 %77
  %79 = load i8, ptr %78, align 1
  %80 = zext i8 %79 to i32
  %81 = icmp eq i32 %80, 125
  br i1 %81, label %98, label %82

82:                                               ; preds = %74
  %83 = load ptr, ptr %4, align 8
  %84 = load i32, ptr %8, align 4
  %85 = zext i32 %84 to i64
  %86 = getelementptr i8, ptr %83, i64 %85
  %87 = load i8, ptr %86, align 1
  %88 = zext i8 %87 to i32
  %89 = icmp eq i32 %88, 92
  br i1 %89, label %98, label %90

90:                                               ; preds = %82
  %91 = load ptr, ptr %4, align 8
  %92 = load i32, ptr %8, align 4
  %93 = zext i32 %92 to i64
  %94 = getelementptr i8, ptr %91, i64 %93
  %95 = load i8, ptr %94, align 1
  %96 = zext i8 %95 to i32
  %97 = icmp eq i32 %96, 124
  br i1 %97, label %98, label %101

98:                                               ; preds = %90, %82, %74, %66, %58, %50, %42, %34
  %99 = load i32, ptr %10, align 4
  %100 = add i32 %99, 1
  store i32 %100, ptr %10, align 4
  br label %101

101:                                              ; preds = %98, %90
  br label %102

102:                                              ; preds = %101, %31
  br label %103

103:                                              ; preds = %102
  %104 = load i32, ptr %8, align 4
  %105 = add i32 %104, 1
  store i32 %105, ptr %8, align 4
  br label %11, !llvm.loop !39

106:                                              ; preds = %11
  %107 = load i32, ptr %9, align 4
  %108 = icmp eq i32 %107, 0
  br i1 %108, label %109, label %218

109:                                              ; preds = %106
  %110 = load ptr, ptr %6, align 8
  %111 = icmp ne ptr %110, null
  br i1 %111, label %112, label %213

112:                                              ; preds = %109
  store i32 0, ptr %8, align 4
  br label %113

113:                                              ; preds = %209, %112
  %114 = load i32, ptr %8, align 4
  %115 = load i32, ptr %5, align 4
  %116 = icmp ult i32 %114, %115
  br i1 %116, label %117, label %212

117:                                              ; preds = %113
  %118 = load ptr, ptr %4, align 8
  %119 = load i32, ptr %8, align 4
  %120 = zext i32 %119 to i64
  %121 = getelementptr i8, ptr %118, i64 %120
  %122 = load i8, ptr %121, align 1
  %123 = zext i8 %122 to i32
  %124 = icmp eq i32 %123, 40
  br i1 %124, label %181, label %125

125:                                              ; preds = %117
  %126 = load ptr, ptr %4, align 8
  %127 = load i32, ptr %8, align 4
  %128 = zext i32 %127 to i64
  %129 = getelementptr i8, ptr %126, i64 %128
  %130 = load i8, ptr %129, align 1
  %131 = zext i8 %130 to i32
  %132 = icmp eq i32 %131, 41
  br i1 %132, label %181, label %133

133:                                              ; preds = %125
  %134 = load ptr, ptr %4, align 8
  %135 = load i32, ptr %8, align 4
  %136 = zext i32 %135 to i64
  %137 = getelementptr i8, ptr %134, i64 %136
  %138 = load i8, ptr %137, align 1
  %139 = zext i8 %138 to i32
  %140 = icmp eq i32 %139, 91
  br i1 %140, label %181, label %141

141:                                              ; preds = %133
  %142 = load ptr, ptr %4, align 8
  %143 = load i32, ptr %8, align 4
  %144 = zext i32 %143 to i64
  %145 = getelementptr i8, ptr %142, i64 %144
  %146 = load i8, ptr %145, align 1
  %147 = zext i8 %146 to i32
  %148 = icmp eq i32 %147, 93
  br i1 %148, label %181, label %149

149:                                              ; preds = %141
  %150 = load ptr, ptr %4, align 8
  %151 = load i32, ptr %8, align 4
  %152 = zext i32 %151 to i64
  %153 = getelementptr i8, ptr %150, i64 %152
  %154 = load i8, ptr %153, align 1
  %155 = zext i8 %154 to i32
  %156 = icmp eq i32 %155, 123
  br i1 %156, label %181, label %157

157:                                              ; preds = %149
  %158 = load ptr, ptr %4, align 8
  %159 = load i32, ptr %8, align 4
  %160 = zext i32 %159 to i64
  %161 = getelementptr i8, ptr %158, i64 %160
  %162 = load i8, ptr %161, align 1
  %163 = zext i8 %162 to i32
  %164 = icmp eq i32 %163, 125
  br i1 %164, label %181, label %165

165:                                              ; preds = %157
  %166 = load ptr, ptr %4, align 8
  %167 = load i32, ptr %8, align 4
  %168 = zext i32 %167 to i64
  %169 = getelementptr i8, ptr %166, i64 %168
  %170 = load i8, ptr %169, align 1
  %171 = zext i8 %170 to i32
  %172 = icmp eq i32 %171, 92
  br i1 %172, label %181, label %173

173:                                              ; preds = %165
  %174 = load ptr, ptr %4, align 8
  %175 = load i32, ptr %8, align 4
  %176 = zext i32 %175 to i64
  %177 = getelementptr i8, ptr %174, i64 %176
  %178 = load i8, ptr %177, align 1
  %179 = zext i8 %178 to i32
  %180 = icmp eq i32 %179, 124
  br i1 %180, label %181, label %197

181:                                              ; preds = %173, %165, %157, %149, %141, %133, %125, %117
  %182 = load ptr, ptr %6, align 8
  %183 = load i32, ptr %7, align 4
  %184 = add i32 %183, 1
  store i32 %184, ptr %7, align 4
  %185 = zext i32 %183 to i64
  %186 = getelementptr i8, ptr %182, i64 %185
  store i8 92, ptr %186, align 1
  %187 = load ptr, ptr %4, align 8
  %188 = load i32, ptr %8, align 4
  %189 = zext i32 %188 to i64
  %190 = getelementptr i8, ptr %187, i64 %189
  %191 = load i8, ptr %190, align 1
  %192 = load ptr, ptr %6, align 8
  %193 = load i32, ptr %7, align 4
  %194 = add i32 %193, 1
  store i32 %194, ptr %7, align 4
  %195 = zext i32 %193 to i64
  %196 = getelementptr i8, ptr %192, i64 %195
  store i8 %191, ptr %196, align 1
  br label %208

197:                                              ; preds = %173
  %198 = load ptr, ptr %4, align 8
  %199 = load i32, ptr %8, align 4
  %200 = zext i32 %199 to i64
  %201 = getelementptr i8, ptr %198, i64 %200
  %202 = load i8, ptr %201, align 1
  %203 = load ptr, ptr %6, align 8
  %204 = load i32, ptr %7, align 4
  %205 = add i32 %204, 1
  store i32 %205, ptr %7, align 4
  %206 = zext i32 %204 to i64
  %207 = getelementptr i8, ptr %203, i64 %206
  store i8 %202, ptr %207, align 1
  br label %208

208:                                              ; preds = %197, %181
  br label %209

209:                                              ; preds = %208
  %210 = load i32, ptr %8, align 4
  %211 = add i32 %210, 1
  store i32 %211, ptr %8, align 4
  br label %113, !llvm.loop !40

212:                                              ; preds = %113
  br label %217

213:                                              ; preds = %109
  %214 = load i32, ptr %5, align 4
  %215 = load i32, ptr %10, align 4
  %216 = add i32 %214, %215
  store i32 %216, ptr %7, align 4
  br label %217

217:                                              ; preds = %213, %212
  br label %277

218:                                              ; preds = %106
  %219 = load ptr, ptr %6, align 8
  %220 = icmp ne ptr %219, null
  br i1 %220, label %221, label %272

221:                                              ; preds = %218
  %222 = load ptr, ptr %6, align 8
  %223 = load i32, ptr %7, align 4
  %224 = add i32 %223, 1
  store i32 %224, ptr %7, align 4
  %225 = zext i32 %223 to i64
  %226 = getelementptr i8, ptr %222, i64 %225
  store i8 123, ptr %226, align 1
  store i32 0, ptr %8, align 4
  br label %227

227:                                              ; preds = %263, %221
  %228 = load i32, ptr %8, align 4
  %229 = load i32, ptr %5, align 4
  %230 = icmp ult i32 %228, %229
  br i1 %230, label %231, label %266

231:                                              ; preds = %227
  %232 = load ptr, ptr %4, align 8
  %233 = load i32, ptr %8, align 4
  %234 = zext i32 %233 to i64
  %235 = getelementptr i8, ptr %232, i64 %234
  %236 = load i8, ptr %235, align 1
  %237 = zext i8 %236 to i32
  %238 = ashr i32 %237, 4
  %239 = and i32 %238, 15
  %240 = sext i32 %239 to i64
  %241 = getelementptr [16 x i8], ptr @OALString_HexChar, i64 0, i64 %240
  %242 = load i8, ptr %241, align 1
  %243 = load ptr, ptr %6, align 8
  %244 = load i32, ptr %7, align 4
  %245 = add i32 %244, 1
  store i32 %245, ptr %7, align 4
  %246 = zext i32 %244 to i64
  %247 = getelementptr i8, ptr %243, i64 %246
  store i8 %242, ptr %247, align 1
  %248 = load ptr, ptr %4, align 8
  %249 = load i32, ptr %8, align 4
  %250 = zext i32 %249 to i64
  %251 = getelementptr i8, ptr %248, i64 %250
  %252 = load i8, ptr %251, align 1
  %253 = zext i8 %252 to i32
  %254 = and i32 %253, 15
  %255 = sext i32 %254 to i64
  %256 = getelementptr [16 x i8], ptr @OALString_HexChar, i64 0, i64 %255
  %257 = load i8, ptr %256, align 1
  %258 = load ptr, ptr %6, align 8
  %259 = load i32, ptr %7, align 4
  %260 = add i32 %259, 1
  store i32 %260, ptr %7, align 4
  %261 = zext i32 %259 to i64
  %262 = getelementptr i8, ptr %258, i64 %261
  store i8 %257, ptr %262, align 1
  br label %263

263:                                              ; preds = %231
  %264 = load i32, ptr %8, align 4
  %265 = add i32 %264, 1
  store i32 %265, ptr %8, align 4
  br label %227, !llvm.loop !41

266:                                              ; preds = %227
  %267 = load ptr, ptr %6, align 8
  %268 = load i32, ptr %7, align 4
  %269 = add i32 %268, 1
  store i32 %269, ptr %7, align 4
  %270 = zext i32 %268 to i64
  %271 = getelementptr i8, ptr %267, i64 %270
  store i8 125, ptr %271, align 1
  br label %276

272:                                              ; preds = %218
  %273 = load i32, ptr %5, align 4
  %274 = mul i32 %273, 2
  %275 = add i32 %274, 2
  store i32 %275, ptr %7, align 4
  br label %276

276:                                              ; preds = %272, %266
  br label %277

277:                                              ; preds = %276, %217
  %278 = load i32, ptr %7, align 4
  call void @llvm.lifetime.end.p0(i64 4, ptr %10) #19
  call void @llvm.lifetime.end.p0(i64 4, ptr %9) #19
  call void @llvm.lifetime.end.p0(i64 4, ptr %8) #19
  call void @llvm.lifetime.end.p0(i64 4, ptr %7) #19
  ret i32 %278
}