; Function Attrs: nofree norecurse nosync nounwind null_pointer_is_valid sspstrong memory(argmem: readwrite) uwtable
define internal fastcc i32 @ObjectID_DataToString(ptr noundef readonly captures(none) %0, i32 noundef range(i32 0, 256) %1, ptr noundef writeonly captures(address_is_null) %2) unnamed_addr #19 {
  %.not102 = icmp eq i32 %1, 0
  br i1 %.not102, label %.thread, label %.lr.ph.preheader

.lr.ph.preheader:                                 ; preds = %3
  %wide.trip.count = zext nneg i32 %1 to i64
  br label %.lr.ph

.lr.ph:                                           ; preds = %.lr.ph.preheader, %12
  %indvars.iv = phi i64 [ 0, %.lr.ph.preheader ], [ %indvars.iv.next, %12 ]
  %.090 = phi i32 [ 0, %.lr.ph.preheader ], [ %.1, %12 ]
  %.07589 = phi i32 [ 0, %.lr.ph.preheader ], [ %.176, %12 ]
  %4 = getelementptr i8, ptr %0, i64 %indvars.iv
  %5 = load i8, ptr %4, align 1
  %6 = add i8 %5, -32
  %or.cond = icmp ult i8 %6, 95
  br i1 %or.cond, label %9, label %7

7:                                                ; preds = %.lr.ph
  %8 = add i32 %.07589, 1
  br label %12

9:                                                ; preds = %.lr.ph
  switch i8 %5, label %12 [
    i8 40, label %10
    i8 41, label %10
    i8 91, label %10
    i8 93, label %10
    i8 123, label %10
    i8 125, label %10
    i8 92, label %10
    i8 124, label %10
  ]

10:                                               ; preds = %9, %9, %9, %9, %9, %9, %9, %9
  %11 = add i32 %.090, 1
  br label %12

12:                                               ; preds = %9, %7, %10
  %.176 = phi i32 [ %.07589, %10 ], [ %8, %7 ], [ %.07589, %9 ]
  %.1 = phi i32 [ %11, %10 ], [ %.090, %7 ], [ %.090, %9 ]
  %indvars.iv.next = add nuw nsw i64 %indvars.iv, 1
  %exitcond.not = icmp eq i64 %indvars.iv.next, %wide.trip.count
  br i1 %exitcond.not, label %._crit_edge, label %.lr.ph, !llvm.loop !44

._crit_edge:                                      ; preds = %12
  %13 = icmp eq i32 %.176, 0
  %.not87 = icmp eq ptr %2, null
  br i1 %13, label %14, label %28

14:                                               ; preds = %._crit_edge
  br i1 %.not87, label %26, label %.lr.ph100.preheader

.thread:                                          ; preds = %3
  %.not87124 = icmp eq ptr %2, null
  br i1 %.not87124, label %26, label %.loopexit

.lr.ph100.preheader:                              ; preds = %14
  %wide.trip.count118 = zext nneg i32 %1 to i64
  br label %.lr.ph100

.lr.ph100:                                        ; preds = %.lr.ph100.preheader, %22
  %indvars.iv115 = phi i64 [ 0, %.lr.ph100.preheader ], [ %indvars.iv.next116, %22 ]
  %.07998 = phi i32 [ 0, %.lr.ph100.preheader ], [ %23, %22 ]
  %15 = getelementptr i8, ptr %0, i64 %indvars.iv115
  %16 = load i8, ptr %15, align 1
  switch i8 %16, label %22 [
    i8 40, label %17
    i8 41, label %17
    i8 91, label %17
    i8 93, label %17
    i8 123, label %17
    i8 125, label %17
    i8 92, label %17
    i8 124, label %17
  ]

17:                                               ; preds = %.lr.ph100, %.lr.ph100, %.lr.ph100, %.lr.ph100, %.lr.ph100, %.lr.ph100, %.lr.ph100, %.lr.ph100
  %18 = add i32 %.07998, 1
  %19 = zext i32 %.07998 to i64
  %20 = getelementptr i8, ptr %2, i64 %19
  store i8 92, ptr %20, align 1
  %21 = load i8, ptr %15, align 1
  br label %22

22:                                               ; preds = %.lr.ph100, %17
  %.sink129 = phi i32 [ 2, %17 ], [ 1, %.lr.ph100 ]
  %.sink128 = phi i32 [ %18, %17 ], [ %.07998, %.lr.ph100 ]
  %.sink = phi i8 [ %21, %17 ], [ %16, %.lr.ph100 ]
  %23 = add i32 %.07998, %.sink129
  %24 = zext i32 %.sink128 to i64
  %25 = getelementptr i8, ptr %2, i64 %24
  store i8 %.sink, ptr %25, align 1
  %indvars.iv.next116 = add nuw nsw i64 %indvars.iv115, 1
  %exitcond119.not = icmp eq i64 %indvars.iv.next116, %wide.trip.count118
  br i1 %exitcond119.not, label %.loopexit, label %.lr.ph100, !llvm.loop !48

26:                                               ; preds = %.thread, %14
  %.0.lcssa122125 = phi i32 [ 0, %.thread ], [ %.1, %14 ]
  %27 = add i32 %.0.lcssa122125, %1
  br label %.loopexit

28:                                               ; preds = %._crit_edge
  br i1 %.not87, label %45, label %.lr.ph95.preheader

.lr.ph95.preheader:                               ; preds = %28
  store i8 123, ptr %2, align 1
  %wide.trip.count113 = zext nneg i32 %1 to i64
  %invariant.gep = getelementptr i8, ptr %2, i64 1
  br label %.lr.ph95

.lr.ph95:                                         ; preds = %.lr.ph95.preheader, %.lr.ph95
  %indvars.iv108 = phi i64 [ 1, %.lr.ph95.preheader ], [ %indvars.iv.next109, %.lr.ph95 ]
  %indvars.iv106 = phi i64 [ 0, %.lr.ph95.preheader ], [ %indvars.iv.next107, %.lr.ph95 ]
  %29 = getelementptr i8, ptr %0, i64 %indvars.iv106
  %30 = load i8, ptr %29, align 1
  %31 = lshr i8 %30, 4
  %32 = zext nneg i8 %31 to i64
  %33 = getelementptr [16 x i8], ptr @OALString_HexChar, i64 0, i64 %32
  %34 = load i8, ptr %33, align 1
  %35 = getelementptr i8, ptr %2, i64 %indvars.iv108
  store i8 %34, ptr %35, align 1
  %36 = load i8, ptr %29, align 1
  %37 = and i8 %36, 15
  %38 = zext nneg i8 %37 to i64
  %39 = getelementptr [16 x i8], ptr @OALString_HexChar, i64 0, i64 %38
  %40 = load i8, ptr %39, align 1
  %indvars.iv.next109 = add nuw nsw i64 %indvars.iv108, 2
  %gep = getelementptr i8, ptr %invariant.gep, i64 %indvars.iv108
  store i8 %40, ptr %gep, align 1
  %indvars.iv.next107 = add nuw nsw i64 %indvars.iv106, 1
  %exitcond114.not = icmp eq i64 %indvars.iv.next107, %wide.trip.count113
  br i1 %exitcond114.not, label %._crit_edge96, label %.lr.ph95, !llvm.loop !49

._crit_edge96:                                    ; preds = %.lr.ph95
  %41 = trunc nuw nsw i64 %indvars.iv.next109 to i32
  %42 = add i32 %41, 1
  %43 = and i64 %indvars.iv.next109, 4294967295
  %44 = getelementptr i8, ptr %2, i64 %43
  store i8 125, ptr %44, align 1
  br label %.loopexit

45:                                               ; preds = %28
  %46 = shl nuw nsw i32 %1, 1
  %47 = add nuw nsw i32 %46, 2
  br label %.loopexit

.loopexit:                                        ; preds = %22, %.thread, %._crit_edge96, %45, %26
  %.281 = phi i32 [ %27, %26 ], [ %42, %._crit_edge96 ], [ %47, %45 ], [ 0, %.thread ], [ %23, %22 ]
  ret i32 %.281
}